CCS PCH C Compiler, Version 4.104, 5967               04-ene-15 11:33

               Filename: E:\SD\UTA\PICC\QL200\Ejemplo\11 Analogico\01 Analogico.lst

               ROM used: 1134 bytes (3%)
                         Largest free fragment is 31634
               RAM used: 4 (0%) at main() level
                         33 (2%) worst case
               Stack:    6 locations

*
0000:  GOTO   039C
.................... #include <18F4550.h> 
.................... //////// Standard Header file for the PIC18F4550 device //////////////// 
.................... #device PIC18F4550 
.................... #list 
....................  
.................... #device adc=10 
....................  
.................... #FUSES NOWDT                     //No Watch Dog Timer 
.................... #FUSES WDT128                    //Watch Dog Timer uses 1:128 Postscale 
.................... #FUSES HSPLL        //cambio para frec      //External clock 
.................... #FUSES PROTECT                 //Code not protected from reading 
.................... #FUSES NOBROWNOUT                //No brownout reset 
.................... #FUSES BORV20                    //Brownout reset at 2.0V 
.................... #FUSES NOPUT                     //No Power Up Timer 
.................... #FUSES CPD                     //No EE protection 
.................... #FUSES STVREN                    //Stack full/underflow will cause reset 
.................... #FUSES NODEBUG                   //No Debug mode for ICD 
.................... #FUSES NOLVP                     //No low voltage prgming, B3(PIC16) or B5(PIC18) used for I/O 
.................... #FUSES NOWRT                     //Program memory not write protected 
.................... #FUSES NOWRTD                    //Data EEPROM not write protected 
.................... #FUSES NOIESO                      //Internal External Switch Over mode enabled 
.................... #FUSES NOFCMEN                     //Fail-safe clock monitor enabled 
.................... #FUSES PBADEN                    //PORTB pins are configured as analog input channels on RESET 
.................... #FUSES NOWRTC                    //configuration not registers write protected 
.................... #FUSES NOWRTB                    //Boot block not write protected 
.................... #FUSES NOEBTR                    //Memory not protected from table reads 
.................... #FUSES NOEBTRB                   //Boot block not protected from table reads 
.................... #FUSES NOCPB                     //No Boot Block code protection 
.................... #FUSES MCLR                      //Master Clear pin enabled 
.................... #FUSES LPT1OSC                   //Timer1 configured for low-power operation 
.................... #FUSES NOXINST                   //Extended set extension and Indexed Addressing mode disabled (Legacy mode) 
.................... #FUSES PLL1                //cambio para frec   //Divide By 12(48MHz oscillator input) 
.................... #FUSES CPUDIV1             //cambio para frec //System Clock by 4 
.................... #FUSES USBDIV                    //USB clock source comes from PLL divide by 2 
.................... #FUSES VREGEN                    //USB voltage regulator enabled 
.................... //#FUSES ICPRT                     //ICPRT enabled 
....................  
....................  
.................... #use delay(clock=48000000)//Frecuencia de reloj 
*
0036:  CLRF   FEA
0038:  MOVLW  16
003A:  MOVWF  FE9
003C:  MOVF   FEF,W
003E:  BZ    005C
0040:  MOVLW  0F
0042:  MOVWF  01
0044:  CLRF   00
0046:  DECFSZ 00,F
0048:  BRA    0046
004A:  DECFSZ 01,F
004C:  BRA    0044
004E:  MOVLW  8F
0050:  MOVWF  00
0052:  DECFSZ 00,F
0054:  BRA    0052
0056:  NOP   
0058:  DECFSZ FEF,F
005A:  BRA    0040
005C:  RETLW  00
....................  
....................  
....................     #define LCD_RS_PIN      PIN_A1 
....................     #define LCD_RW_PIN      PIN_A2 
....................     #define LCD_ENABLE_PIN  PIN_A3 
....................     #define LCD_DATA4       PIN_D4 
....................     #define LCD_DATA5       PIN_D5 
....................     #define LCD_DATA6       PIN_D6 
....................     #define LCD_DATA7       PIN_D7 
....................  
....................     #include "lcd.c" 
.................... /////////////////////////////////////////////////////////////////////////////// 
.................... ////                             LCD.C                                     //// 
.................... ////                 Driver for common LCD modules                         //// 
.................... ////                                                                       //// 
.................... ////  lcd_init()   Must be called before any other function.               //// 
.................... ////                                                                       //// 
.................... ////  lcd_putc(c)  Will display c on the next position of the LCD.         //// 
.................... ////                     The following have special meaning:               //// 
.................... ////                      \f  Clear display                                //// 
.................... ////                      \n  Go to start of second line                   //// 
.................... ////                      \b  Move back one position                       //// 
.................... ////                                                                       //// 
.................... ////  lcd_gotoxy(x,y) Set write position on LCD (upper left is 1,1)        //// 
.................... ////                                                                       //// 
.................... ////  lcd_getc(x,y)   Returns character at position x,y on LCD             //// 
.................... ////                                                                       //// 
.................... ////  CONFIGURATION                                                        //// 
.................... ////  The LCD can be configured in one of two ways: a.) port access or     //// 
.................... ////  b.) pin access.  Port access requires the entire 7 bit interface     //// 
.................... ////  connected to one GPIO port, and the data bits (D4:D7 of the LCD)     //// 
.................... ////  connected to sequential pins on the GPIO.  Pin access                //// 
.................... ////  has no requirements, all 7 bits of the control interface can         //// 
.................... ////  can be connected to any GPIO using several ports.                    //// 
.................... ////                                                                       //// 
.................... ////  To use port access, #define LCD_DATA_PORT to the SFR location of     //// 
.................... ////  of the GPIO port that holds the interface, -AND- edit LCD_PIN_MAP    //// 
.................... ////  of this file to configure the pin order.  If you are using a         //// 
.................... ////  baseline PIC (PCB), then LCD_OUTPUT_MAP and LCD_INPUT_MAP also must  //// 
.................... ////  be defined.                                                          //// 
.................... ////                                                                       //// 
.................... ////  Example of port access:                                              //// 
.................... ////     #define LCD_DATA_PORT getenv("SFR:PORTD")                         //// 
.................... ////                                                                       //// 
.................... ////  To use pin access, the following pins must be defined:               //// 
.................... ////     LCD_ENABLE_PIN                                                    //// 
.................... ////     LCD_RS_PIN                                                        //// 
.................... ////     LCD_RW_PIN                                                        //// 
.................... ////     LCD_DATA4                                                         //// 
.................... ////     LCD_DATA5                                                         //// 
.................... ////     LCD_DATA6                                                         //// 
.................... ////     LCD_DATA7                                                         //// 
.................... ////                                                                       //// 
.................... ////  Example of pin access:                                               //// 
.................... ////     #define LCD_ENABLE_PIN  PIN_E0                                    //// 
.................... ////     #define LCD_RS_PIN      PIN_E1                                    //// 
.................... ////     #define LCD_RW_PIN      PIN_E2                                    //// 
.................... ////     #define LCD_DATA4       PIN_D4                                    //// 
.................... ////     #define LCD_DATA5       PIN_D5                                    //// 
.................... ////     #define LCD_DATA6       PIN_D6                                    //// 
.................... ////     #define LCD_DATA7       PIN_D7                                    //// 
.................... ////                                                                       //// 
.................... /////////////////////////////////////////////////////////////////////////////// 
.................... ////        (C) Copyright 1996,2009 Custom Computer Services           //// 
.................... //// This source code may only be used by licensed users of the CCS C  //// 
.................... //// compiler.  This source code may only be distributed to other      //// 
.................... //// licensed users of the CCS C compiler.  No other use, reproduction //// 
.................... //// or distribution is permitted without written permission.          //// 
.................... //// Derivative programs created using this software in object code    //// 
.................... //// form are not restricted in any way.                               //// 
.................... /////////////////////////////////////////////////////////////////////////// 
....................  
.................... // define the pinout. 
.................... // only required if port access is being used. 
.................... typedef struct   
.................... {                            // This structure is overlayed 
....................    BOOLEAN enable;           // on to an I/O port to gain 
....................    BOOLEAN rs;               // access to the LCD pins. 
....................    BOOLEAN rw;               // The bits are allocated from 
....................    BOOLEAN unused;           // low order up.  ENABLE will 
....................    int     data : 4;         // be LSB pin of that port. 
....................   #if defined(__PCD__)       // The port used will be LCD_DATA_PORT. 
....................    int    reserved: 8; 
....................   #endif 
.................... } LCD_PIN_MAP; 
....................  
.................... // this is to improve compatability with previous LCD drivers that accepted 
.................... // a define labeled 'use_portb_lcd' that configured the LCD onto port B. 
.................... #if ((defined(use_portb_lcd)) && (use_portb_lcd==TRUE)) 
....................  #define LCD_DATA_PORT getenv("SFR:PORTB") 
.................... #endif 
....................  
.................... #if defined(__PCB__) 
....................    // these definitions only need to be modified for baseline PICs. 
....................    // all other PICs use LCD_PIN_MAP or individual LCD_xxx pin definitions. 
.................... /*                                    EN, RS,   RW,   UNUSED,  DATA  */ 
....................  const LCD_PIN_MAP LCD_OUTPUT_MAP =  {0,  0,    0,    0,       0}; 
....................  const LCD_PIN_MAP LCD_INPUT_MAP =   {0,  0,    0,    0,       0xF}; 
.................... #endif 
....................  
.................... ////////////////////// END CONFIGURATION /////////////////////////////////// 
....................  
.................... #ifndef LCD_ENABLE_PIN 
....................    #define lcd_output_enable(x) lcdlat.enable=x 
....................    #define lcd_enable_tris()   lcdtris.enable=0 
.................... #else 
....................    #define lcd_output_enable(x) output_bit(LCD_ENABLE_PIN, x) 
....................    #define lcd_enable_tris()  output_drive(LCD_ENABLE_PIN) 
.................... #endif 
....................  
.................... #ifndef LCD_RS_PIN 
....................    #define lcd_output_rs(x) lcdlat.rs=x 
....................    #define lcd_rs_tris()   lcdtris.rs=0 
.................... #else 
....................    #define lcd_output_rs(x) output_bit(LCD_RS_PIN, x) 
....................    #define lcd_rs_tris()  output_drive(LCD_RS_PIN) 
.................... #endif 
....................  
.................... #ifndef LCD_RW_PIN 
....................    #define lcd_output_rw(x) lcdlat.rw=x 
....................    #define lcd_rw_tris()   lcdtris.rw=0 
.................... #else 
....................    #define lcd_output_rw(x) output_bit(LCD_RW_PIN, x) 
....................    #define lcd_rw_tris()  output_drive(LCD_RW_PIN) 
.................... #endif 
....................  
.................... // original version of this library incorrectly labeled LCD_DATA0 as LCD_DATA4, 
.................... // LCD_DATA1 as LCD_DATA5, and so on.  this block of code makes the driver 
.................... // compatible with any code written for the original library 
.................... #if (defined(LCD_DATA0) && defined(LCD_DATA1) && defined(LCD_DATA2) && defined(LCD_DATA3) && !defined(LCD_DATA4) && !defined(LCD_DATA5) && !defined(LCD_DATA6) && !defined(LCD_DATA7)) 
....................    #define  LCD_DATA4    LCD_DATA0 
....................    #define  LCD_DATA5    LCD_DATA1 
....................    #define  LCD_DATA6    LCD_DATA2 
....................    #define  LCD_DATA7    LCD_DATA3 
.................... #endif 
....................  
.................... #ifndef LCD_DATA4 
.................... #ifndef LCD_DATA_PORT 
....................    #if defined(__PCB__) 
....................       #define LCD_DATA_PORT      0x06     //portb 
....................       #define set_tris_lcd(x)   set_tris_b(x) 
....................    #else 
....................      #if defined(PIN_D0) 
....................       #define LCD_DATA_PORT      getenv("SFR:PORTD")     //portd 
....................      #else 
....................       #define LCD_DATA_PORT      getenv("SFR:PORTB")     //portb 
....................      #endif 
....................    #endif    
.................... #endif 
....................  
.................... #if defined(__PCB__) 
....................    LCD_PIN_MAP lcd, lcdlat; 
....................    #byte lcd = LCD_DATA_PORT 
....................    #byte lcdlat = LCD_DATA_PORT 
.................... #elif defined(__PCM__) 
....................    LCD_PIN_MAP lcd, lcdlat, lcdtris; 
....................    #byte lcd = LCD_DATA_PORT 
....................    #byte lcdlat = LCD_DATA_PORT 
....................    #byte lcdtris = LCD_DATA_PORT+0x80 
.................... #elif defined(__PCH__) 
....................    LCD_PIN_MAP lcd, lcdlat, lcdtris; 
....................    #byte lcd = LCD_DATA_PORT 
....................    #byte lcdlat = LCD_DATA_PORT+9 
....................    #byte lcdtris = LCD_DATA_PORT+0x12 
.................... #elif defined(__PCD__) 
....................    LCD_PIN_MAP lcd, lcdlat, lcdtris; 
....................    #word lcd = LCD_DATA_PORT 
....................    #word lcdlat = LCD_DATA_PORT+2 
....................    #word lcdtris = LCD_DATA_PORT-0x02 
.................... #endif 
.................... #endif   //LCD_DATA4 not defined 
....................  
.................... #ifndef LCD_TYPE 
....................    #define LCD_TYPE 2           // 0=5x7, 1=5x10, 2=2 lines 
.................... #endif 
....................  
.................... #ifndef LCD_LINE_TWO 
....................    #define LCD_LINE_TWO 0x40    // LCD RAM address for the second line 
.................... #endif 
....................  
.................... BYTE const LCD_INIT_STRING[4] = {0x20 | (LCD_TYPE << 2), 0xc, 1, 6}; 
....................                              // These bytes need to be sent to the LCD 
....................                              // to start it up. 
....................  
.................... BYTE lcd_read_nibble(void); 
....................  
.................... BYTE lcd_read_byte(void) 
.................... { 
....................    BYTE low,high; 
....................  
....................  #if defined(__PCB__) 
....................    set_tris_lcd(LCD_INPUT_MAP); 
....................  #else 
....................   #if (defined(LCD_DATA4) && defined(LCD_DATA5) && defined(LCD_DATA6) && defined(LCD_DATA7)) 
....................    output_float(LCD_DATA4); 
*
00F6:  BSF    F95.4
....................    output_float(LCD_DATA5); 
00F8:  BSF    F95.5
....................    output_float(LCD_DATA6); 
00FA:  BSF    F95.6
....................    output_float(LCD_DATA7); 
00FC:  BSF    F95.7
....................   #else 
....................    lcdtris.data = 0xF; 
....................   #endif 
....................  #endif 
....................          
....................    lcd_output_rw(1); 
00FE:  BSF    F89.2
0100:  BCF    F92.2
....................    delay_cycles(1); 
0102:  NOP   
....................    lcd_output_enable(1); 
0104:  BSF    F89.3
0106:  BCF    F92.3
....................    delay_cycles(1); 
0108:  NOP   
....................    high = lcd_read_nibble(); 
010A:  RCALL  00A4
010C:  MOVFF  01,1D
....................        
....................    lcd_output_enable(0); 
0110:  BCF    F89.3
0112:  BCF    F92.3
....................    delay_cycles(1); 
0114:  NOP   
....................    lcd_output_enable(1); 
0116:  BSF    F89.3
0118:  BCF    F92.3
....................    delay_us(1); 
011A:  MOVLW  03
011C:  MOVWF  00
011E:  DECFSZ 00,F
0120:  BRA    011E
0122:  BRA    0124
....................    low = lcd_read_nibble(); 
0124:  RCALL  00A4
0126:  MOVFF  01,1C
....................        
....................    lcd_output_enable(0); 
012A:  BCF    F89.3
012C:  BCF    F92.3
....................  
....................  #if defined(__PCB__) 
....................    set_tris_lcd(LCD_INPUT_MAP); 
....................  #else 
....................   #if (defined(LCD_DATA4) && defined(LCD_DATA5) && defined(LCD_DATA6) && defined(LCD_DATA7)) 
....................    output_drive(LCD_DATA4); 
012E:  BCF    F95.4
....................    output_drive(LCD_DATA5); 
0130:  BCF    F95.5
....................    output_drive(LCD_DATA6); 
0132:  BCF    F95.6
....................    output_drive(LCD_DATA7); 
0134:  BCF    F95.7
....................   #else 
....................    lcdtris.data = 0x0; 
....................   #endif 
....................  #endif 
....................  
....................    return( (high<<4) | low); 
0136:  SWAPF  1D,W
0138:  MOVWF  00
013A:  MOVLW  F0
013C:  ANDWF  00,F
013E:  MOVF   00,W
0140:  IORWF  1C,W
0142:  MOVWF  01
.................... } 
0144:  GOTO   014E (RETURN)
....................  
.................... BYTE lcd_read_nibble(void) 
.................... { 
....................   #if (defined(LCD_DATA4) && defined(LCD_DATA5) && defined(LCD_DATA6) && defined(LCD_DATA7)) 
*
00A4:  CLRF   1E
....................    BYTE n = 0x00; 
....................  
....................    /* Read the data port */ 
....................    n |= input(LCD_DATA4); 
00A6:  BSF    F95.4
00A8:  MOVLW  00
00AA:  BTFSC  F83.4
00AC:  MOVLW  01
00AE:  IORWF  1E,F
....................    n |= input(LCD_DATA5) << 1; 
00B0:  BSF    F95.5
00B2:  MOVLW  00
00B4:  BTFSC  F83.5
00B6:  MOVLW  01
00B8:  MOVWF  00
00BA:  BCF    FD8.0
00BC:  RLCF   00,F
00BE:  MOVF   00,W
00C0:  IORWF  1E,F
....................    n |= input(LCD_DATA6) << 2; 
00C2:  BSF    F95.6
00C4:  MOVLW  00
00C6:  BTFSC  F83.6
00C8:  MOVLW  01
00CA:  MOVWF  00
00CC:  RLCF   00,F
00CE:  RLCF   00,F
00D0:  MOVLW  FC
00D2:  ANDWF  00,F
00D4:  MOVF   00,W
00D6:  IORWF  1E,F
....................    n |= input(LCD_DATA7) << 3; 
00D8:  BSF    F95.7
00DA:  MOVLW  00
00DC:  BTFSC  F83.7
00DE:  MOVLW  01
00E0:  MOVWF  00
00E2:  RLCF   00,F
00E4:  RLCF   00,F
00E6:  RLCF   00,F
00E8:  MOVLW  F8
00EA:  ANDWF  00,F
00EC:  MOVF   00,W
00EE:  IORWF  1E,F
....................     
....................    return(n); 
00F0:  MOVFF  1E,01
....................   #else 
....................    return(lcd.data); 
....................   #endif 
.................... } 
00F4:  RETLW  00
....................  
.................... void lcd_send_nibble(BYTE n) 
.................... { 
....................   #if (defined(LCD_DATA4) && defined(LCD_DATA5) && defined(LCD_DATA6) && defined(LCD_DATA7)) 
....................    /* Write to the data port */ 
....................    output_bit(LCD_DATA4, bit_test(n, 0)); 
*
005E:  BTFSC  1D.0
0060:  BRA    0066
0062:  BCF    F8C.4
0064:  BRA    0068
0066:  BSF    F8C.4
0068:  BCF    F95.4
....................    output_bit(LCD_DATA5, bit_test(n, 1)); 
006A:  BTFSC  1D.1
006C:  BRA    0072
006E:  BCF    F8C.5
0070:  BRA    0074
0072:  BSF    F8C.5
0074:  BCF    F95.5
....................    output_bit(LCD_DATA6, bit_test(n, 2)); 
0076:  BTFSC  1D.2
0078:  BRA    007E
007A:  BCF    F8C.6
007C:  BRA    0080
007E:  BSF    F8C.6
0080:  BCF    F95.6
....................    output_bit(LCD_DATA7, bit_test(n, 3)); 
0082:  BTFSC  1D.3
0084:  BRA    008A
0086:  BCF    F8C.7
0088:  BRA    008C
008A:  BSF    F8C.7
008C:  BCF    F95.7
....................   #else       
....................    lcdlat.data = n; 
....................   #endif 
....................        
....................    delay_cycles(1); 
008E:  NOP   
....................    lcd_output_enable(1); 
0090:  BSF    F89.3
0092:  BCF    F92.3
....................    delay_us(2); 
0094:  MOVLW  07
0096:  MOVWF  00
0098:  DECFSZ 00,F
009A:  BRA    0098
009C:  BRA    009E
....................    lcd_output_enable(0); 
009E:  BCF    F89.3
00A0:  BCF    F92.3
.................... } 
00A2:  RETLW  00
....................  
.................... void lcd_send_byte(BYTE address, BYTE n) 
.................... { 
....................    lcd_output_rs(0); 
*
0148:  BCF    F89.1
014A:  BCF    F92.1
....................    while ( bit_test(lcd_read_byte(),7) ) ; 
014C:  BRA    00F6
014E:  MOVFF  01,1C
0152:  BTFSC  01.7
0154:  BRA    014C
....................    lcd_output_rs(address); 
0156:  MOVF   1A,F
0158:  BNZ   015E
015A:  BCF    F89.1
015C:  BRA    0160
015E:  BSF    F89.1
0160:  BCF    F92.1
....................    delay_cycles(1); 
0162:  NOP   
....................    lcd_output_rw(0); 
0164:  BCF    F89.2
0166:  BCF    F92.2
....................    delay_cycles(1); 
0168:  NOP   
....................    lcd_output_enable(0); 
016A:  BCF    F89.3
016C:  BCF    F92.3
....................    lcd_send_nibble(n >> 4); 
016E:  SWAPF  1B,W
0170:  MOVWF  1C
0172:  MOVLW  0F
0174:  ANDWF  1C,F
0176:  MOVFF  1C,1D
017A:  RCALL  005E
....................    lcd_send_nibble(n & 0xf); 
017C:  MOVF   1B,W
017E:  ANDLW  0F
0180:  MOVWF  1C
0182:  MOVWF  1D
0184:  RCALL  005E
.................... } 
0186:  RETLW  00
....................  
.................... void lcd_init(void)  
.................... { 
....................    BYTE i; 
....................  
....................  #if defined(__PCB__) 
....................    set_tris_lcd(LCD_OUTPUT_MAP); 
....................  #else 
....................   #if (defined(LCD_DATA4) && defined(LCD_DATA5) && defined(LCD_DATA6) && defined(LCD_DATA7)) 
....................    output_drive(LCD_DATA4); 
0188:  BCF    F95.4
....................    output_drive(LCD_DATA5); 
018A:  BCF    F95.5
....................    output_drive(LCD_DATA6); 
018C:  BCF    F95.6
....................    output_drive(LCD_DATA7); 
018E:  BCF    F95.7
....................   #else 
....................    lcdtris.data = 0x0; 
....................   #endif 
....................    lcd_enable_tris(); 
0190:  BCF    F92.3
....................    lcd_rs_tris(); 
0192:  BCF    F92.1
....................    lcd_rw_tris(); 
0194:  BCF    F92.2
....................  #endif 
....................  
....................    lcd_output_rs(0); 
0196:  BCF    F89.1
0198:  BCF    F92.1
....................    lcd_output_rw(0); 
019A:  BCF    F89.2
019C:  BCF    F92.2
....................    lcd_output_enable(0); 
019E:  BCF    F89.3
01A0:  BCF    F92.3
....................      
....................    delay_ms(15); 
01A2:  MOVLW  0F
01A4:  MOVWF  16
01A6:  RCALL  0036
....................    for(i=1;i<=3;++i) 
01A8:  MOVLW  01
01AA:  MOVWF  09
01AC:  MOVF   09,W
01AE:  SUBLW  03
01B0:  BNC   01C2
....................    { 
....................        lcd_send_nibble(3); 
01B2:  MOVLW  03
01B4:  MOVWF  1D
01B6:  RCALL  005E
....................        delay_ms(5); 
01B8:  MOVLW  05
01BA:  MOVWF  16
01BC:  RCALL  0036
....................    } 
01BE:  INCF   09,F
01C0:  BRA    01AC
....................      
....................    lcd_send_nibble(2); 
01C2:  MOVLW  02
01C4:  MOVWF  1D
01C6:  RCALL  005E
....................    for(i=0;i<=3;++i) 
01C8:  CLRF   09
01CA:  MOVF   09,W
01CC:  SUBLW  03
01CE:  BNC   01EC
....................       lcd_send_byte(0,LCD_INIT_STRING[i]); 
01D0:  CLRF   03
01D2:  MOVF   09,W
01D4:  MOVFF  FF2,0A
01D8:  BCF    FF2.7
01DA:  RCALL  0004
01DC:  BTFSC  0A.7
01DE:  BSF    FF2.7
01E0:  MOVWF  0A
01E2:  CLRF   1A
01E4:  MOVWF  1B
01E6:  RCALL  0148
01E8:  INCF   09,F
01EA:  BRA    01CA
.................... } 
01EC:  GOTO   040A (RETURN)
....................  
.................... void lcd_gotoxy(BYTE x, BYTE y) 
.................... { 
....................    BYTE address; 
....................  
....................    if(y!=1) 
01F0:  DECFSZ 17,W
01F2:  BRA    01F6
01F4:  BRA    01FC
....................       address=LCD_LINE_TWO; 
01F6:  MOVLW  40
01F8:  MOVWF  18
....................    else 
01FA:  BRA    01FE
....................       address=0; 
01FC:  CLRF   18
....................       
....................    address+=x-1; 
01FE:  MOVLW  01
0200:  SUBWF  16,W
0202:  ADDWF  18,F
....................    lcd_send_byte(0,0x80|address); 
0204:  MOVF   18,W
0206:  IORLW  80
0208:  MOVWF  19
020A:  CLRF   1A
020C:  MOVWF  1B
020E:  RCALL  0148
.................... } 
0210:  RETLW  00
....................  
.................... //------------------------------------------------------------------------------------ 
.................... //añadido por mi 31/jul/2013 para usar las direcciones del LCD para varias líneas 
.................... //0x80 1a línea 
.................... //0xC0 2a línea 
.................... //0x90 3a línea 
.................... //0xD0 4a línea 
.................... void lcd_pos(BYTE address) 
.................... { 
....................    lcd_send_byte(0,address); 
.................... } 
....................  
.................... void lcd_putc(char c) 
.................... { 
....................    switch (c) 
....................    { 
0212:  MOVF   15,W
0214:  XORLW  0C
0216:  BZ    0222
0218:  XORLW  06
021A:  BZ    0232
021C:  XORLW  02
021E:  BZ    023E
0220:  BRA    0248
....................       case '\f'   :  lcd_send_byte(0,1); 
0222:  CLRF   1A
0224:  MOVLW  01
0226:  MOVWF  1B
0228:  RCALL  0148
....................                      delay_ms(2); 
022A:  MOVLW  02
022C:  MOVWF  16
022E:  RCALL  0036
....................                      break; 
0230:  BRA    0254
....................                       
....................       case '\n'   : lcd_gotoxy(1,2);        break; 
0232:  MOVLW  01
0234:  MOVWF  16
0236:  MOVLW  02
0238:  MOVWF  17
023A:  RCALL  01F0
023C:  BRA    0254
....................       
....................       case '\b'   : lcd_send_byte(0,0x10);  break; 
023E:  CLRF   1A
0240:  MOVLW  10
0242:  MOVWF  1B
0244:  RCALL  0148
0246:  BRA    0254
....................       
....................       default     : lcd_send_byte(1,c);     break; 
0248:  MOVLW  01
024A:  MOVWF  1A
024C:  MOVFF  15,1B
0250:  RCALL  0148
0252:  BRA    0254
....................    } 
.................... } 
0254:  RETLW  00
....................   
.................... char lcd_getc(BYTE x, BYTE y) 
.................... { 
....................    char value; 
....................  
....................    lcd_gotoxy(x,y); 
....................    while ( bit_test(lcd_read_byte(),7) ); // wait until busy flag is low 
....................    lcd_output_rs(1); 
....................    value = lcd_read_byte(); 
....................    lcd_output_rs(0); 
....................     
....................    return(value); 
.................... } 
....................  
....................      
....................      
....................      
.................... void main() 
.................... { 
*
039C:  CLRF   FF8
039E:  BCF    FD0.7
03A0:  CLRF   FEA
03A2:  CLRF   FE9
03A4:  MOVF   FC1,W
03A6:  ANDLW  C0
03A8:  IORLW  0F
03AA:  MOVWF  FC1
03AC:  MOVLW  07
03AE:  MOVWF  FB4
....................  
....................    setup_adc_ports(AN0|VSS_VDD); 
03B0:  MOVF   FC1,W
03B2:  ANDLW  C0
03B4:  IORLW  0E
03B6:  MOVWF  FC1
....................    setup_adc(ADC_CLOCK_INTERNAL); 
03B8:  BSF    FC0.0
03BA:  BSF    FC0.1
03BC:  BSF    FC0.2
03BE:  BSF    FC0.7
03C0:  BSF    FC2.0
....................    setup_psp(PSP_DISABLED); 
03C2:  BCF    F96.4
....................    setup_spi(SPI_SS_DISABLED); 
03C4:  BCF    FC6.5
03C6:  BCF    F94.7
03C8:  BSF    F93.0
03CA:  BCF    F93.1
03CC:  MOVLW  01
03CE:  MOVWF  FC6
03D0:  MOVLW  00
03D2:  MOVWF  FC7
....................    setup_wdt(WDT_OFF); 
03D4:  BCF    FD1.0
....................    setup_timer_0(RTCC_INTERNAL); 
03D6:  MOVLW  80
03D8:  MOVWF  FD5
....................    setup_timer_1(T1_DISABLED); 
03DA:  CLRF   FCD
....................    setup_timer_2(T2_DISABLED,0,1); 
03DC:  MOVLW  00
03DE:  MOVWF  FCA
03E0:  MOVLW  00
03E2:  MOVWF  FCB
....................    setup_comparator(NC_NC_NC_NC); 
03E4:  MOVLW  07
03E6:  MOVWF  FB4
03E8:  MOVF   F92,W
03EA:  MOVWF  F92
03EC:  MOVLW  27
03EE:  MOVWF  00
03F0:  DECFSZ 00,F
03F2:  BRA    03F0
03F4:  BRA    03F6
03F6:  MOVF   FB4,W
03F8:  BCF    FA1.6
....................    setup_vref(FALSE); 
03FA:  CLRF   FB5
.................... //Setup_Oscillator parameter not selected from Intr Oscillator Config tab 
....................  
....................  
....................    set_tris_a(0x0f);                   //configura la puerto a como salidas 
03FC:  MOVLW  0F
03FE:  MOVWF  F92
....................    set_tris_b(0x0f);                   //configura la puerto b parte alta como salidas parte baja entradas 
0400:  MOVWF  F93
....................    set_tris_c(0x0);                   //configura la puerto c como salidas 
0402:  MOVLW  00
0404:  MOVWF  F94
....................    set_tris_d(0x0);                   //configura la puerto d como salidas 
0406:  MOVWF  F95
....................     
....................       int32 analog; 
....................       lcd_init();                         //Inicializa el lcd 
0408:  BRA    0188
....................       printf(lcd_putc,"\fLectura del ADC"); 
040A:  MOVLW  18
040C:  MOVWF  FF6
040E:  MOVLW  00
0410:  MOVWF  FF7
0412:  RCALL  0256
....................       printf(lcd_putc,"\nAnalogico="); 
0414:  MOVLW  2A
0416:  MOVWF  FF6
0418:  MOVLW  00
041A:  MOVWF  FF7
041C:  RCALL  0256
....................       analog = 0; 
041E:  CLRF   08
0420:  CLRF   07
0422:  CLRF   06
0424:  CLRF   05
....................       set_adc_channel(0); 
0426:  MOVLW  00
0428:  MOVWF  01
042A:  MOVF   FC2,W
042C:  ANDLW  C3
042E:  IORWF  01,W
0430:  MOVWF  FC2
....................       while(true) 
....................       { 
....................             lcd_gotoxy(10,2); 
0432:  MOVLW  0A
0434:  MOVWF  16
0436:  MOVLW  02
0438:  MOVWF  17
043A:  RCALL  01F0
....................             analog = read_adc(); 
043C:  BSF    FC2.1
043E:  BTFSC  FC2.1
0440:  BRA    043E
0442:  MOVFF  FC3,05
0446:  MOVFF  FC4,06
044A:  CLRF   07
044C:  CLRF   08
....................             printf(lcd_putc,"%5Lu",analog); 
044E:  MOVLW  05
0450:  MOVWF  FE9
0452:  MOVFF  08,0C
0456:  MOVFF  07,0B
045A:  MOVFF  06,0A
045E:  MOVFF  05,09
0462:  BRA    02F0
....................             delay_ms(100); 
0464:  MOVLW  64
0466:  MOVWF  16
0468:  RCALL  0036
....................       } 
046A:  BRA    0432
.................... } 
....................  
....................  
046C:  SLEEP 

Configuration Fuses:
   Word  1: 0E20   NOIESO NOFCMEN HSPLL PLL1 CPUDIV1 USBDIV
   Word  2: 0E39   NOBROWNOUT WDT128 NOWDT BORV20 NOPUT VREGEN
   Word  3: 8700   PBADEN CCP2C1 MCLR LPT1OSC
   Word  4: 0081   STVREN NODEBUG NOLVP NOXINST NOICPRT
   Word  5: 4000   PROTECT CPD NOCPB
   Word  6: E00F   NOWRT NOWRTD NOWRTC NOWRTB
   Word  7: 400F   NOEBTR NOEBTRB
